target datalayout = "e-m:e-p270:32:32-p271:32:32-p272:64:64-i64:64-i128:128-f80:128-n8:16:32:64-S128"
target triple = "x86_64-pc-linux-gnu"

%struct._GLFWlibrary = type { i32, %struct.GLFWallocator, %struct._GLFWplatform, %struct.anon, ptr, ptr, ptr, ptr, i32, i32, [16 x %struct._GLFWjoystick], ptr, i32, %struct._GLFWtls, %struct._GLFWtls, %struct._GLFWmutex, %struct.anon.8, %struct.anon.9, %struct.anon.10, %struct.anon.11, %struct.anon.12, %struct._GLFWlibraryWayland, %struct._GLFWlibraryX11, %struct._GLFWlibraryNull, %struct._GLFWlibraryGLX, %struct._GLFWlibraryLinux }
%struct.GLFWallocator = type { ptr, ptr, ptr, ptr }
%struct._GLFWplatform = type { i32, ptr, ptr, ptr, ptr, ptr, ptr, ptr, ptr, ptr, ptr, ptr, ptr, ptr, ptr, ptr, ptr, ptr, ptr, ptr, ptr, ptr, ptr, ptr, ptr, ptr, ptr, ptr, ptr, ptr, ptr, ptr, ptr, ptr, ptr, ptr, ptr, ptr, ptr, ptr, ptr, ptr, ptr, ptr, ptr, ptr, ptr, ptr, ptr, ptr, ptr, ptr, ptr, ptr, ptr, ptr, ptr, ptr, ptr, ptr, ptr, ptr, ptr, ptr, ptr, ptr, ptr, ptr, ptr, ptr, ptr, ptr }
%struct.anon = type { %struct._GLFWinitconfig, %struct._GLFWfbconfig, %struct._GLFWwndconfig, %struct._GLFWctxconfig, i32 }
%struct._GLFWinitconfig = type { i32, i32, i32, ptr, %struct.anon.0, %struct.anon.1, %struct.anon.2 }
%struct.anon.0 = type { i32, i32 }
%struct.anon.1 = type { i32 }
%struct.anon.2 = type { i32 }
%struct._GLFWfbconfig = type { i32, i32, i32, i32, i32, i32, i32, i32, i32, i32, i32, i32, i32, i32, i32, i32, i64 }
%struct._GLFWwndconfig = type { i32, i32, i32, i32, ptr, i32, i32, i32, i32, i32, i32, i32, i32, i32, i32, i32, i32, %struct.anon.3, %struct.anon.4, %struct.anon.5, %struct.anon.6 }
%struct.anon.3 = type { [256 x i8] }
%struct.anon.4 = type { [256 x i8], [256 x i8] }
%struct.anon.5 = type { i32, i32 }
%struct.anon.6 = type { [256 x i8] }
%struct._GLFWctxconfig = type { i32, i32, i32, i32, i32, i32, i32, i32, i32, i32, ptr, %struct.anon.7 }
%struct.anon.7 = type { i32 }
%struct._GLFWjoystick = type { i32, i32, ptr, i32, ptr, i32, ptr, i32, [128 x i8], ptr, [33 x i8], ptr, %struct._GLFWjoystickLinux }
%struct._GLFWjoystickLinux = type { i32, [4096 x i8], [512 x i32], [64 x i32], [64 x %struct.input_absinfo], [4 x [2 x i32]] }
%struct.input_absinfo = type { i32, i32, i32, i32, i32, i32 }
%struct._GLFWtls = type { %struct._GLFWtlsPOSIX }
%struct._GLFWtlsPOSIX = type { i32, i32 }
%struct._GLFWmutex = type { %struct._GLFWmutexPOSIX }
%struct._GLFWmutexPOSIX = type { i32, %union.pthread_mutex_t }
%union.pthread_mutex_t = type { %struct.__pthread_mutex_s }
%struct.__pthread_mutex_s = type { i32, i32, i32, i32, i32, i16, i16, %struct.__pthread_internal_list }
%struct.__pthread_internal_list = type { ptr, ptr }
%struct.anon.8 = type { i64, %struct._GLFWtimerPOSIX }
%struct._GLFWtimerPOSIX = type { i32, i64 }
%struct.anon.9 = type { i32, ptr, i32, i32, i32, i32, i32, i32, i32, i32, i32, i32, i32, i32, i32, i32, i32, i32, i32, i32, ptr, ptr, ptr, ptr, ptr, ptr, ptr, ptr, ptr, ptr, ptr, ptr, ptr, ptr, ptr, ptr, ptr, ptr, ptr }
%struct.anon.10 = type { ptr, ptr, ptr, ptr, ptr, ptr, ptr, ptr }
%struct.anon.11 = type { i32, ptr, [2 x ptr], ptr, i32, i32, i32, i32, i32, i32, i32 }
%struct.anon.12 = type { ptr, ptr }
%struct._GLFWlibraryWayland = type { ptr, ptr, ptr, ptr, ptr, ptr, ptr, ptr, ptr, ptr, ptr, ptr, ptr, ptr, ptr, ptr, ptr, ptr, ptr, i32, ptr, ptr, ptr, ptr, i32, ptr, ptr, ptr, ptr, ptr, i32, i32, i32, i32, i32, i32, i32, ptr, [256 x i16], [349 x i16], [349 x [5 x i8]], %struct.anon.13, ptr, ptr, %struct.anon.14, %struct.anon.15, %struct.anon.16, %struct.anon.17 }
%struct.anon.13 = type { ptr, ptr, ptr, ptr, ptr, i32, i32, i32, i32, i32, i32, i32, ptr, ptr, ptr, ptr, ptr, ptr, ptr, ptr, ptr, ptr, ptr, ptr, ptr, ptr, ptr, ptr, ptr, ptr, ptr, ptr }
%struct.anon.14 = type { ptr, ptr, ptr, ptr, ptr, ptr, ptr, ptr, ptr, ptr, ptr, ptr, ptr, ptr, ptr, ptr, ptr, ptr, ptr, ptr }
%struct.anon.15 = type { ptr, ptr, ptr, ptr, ptr }
%struct.anon.16 = type { ptr, ptr, ptr, ptr }
%struct.anon.17 = type { ptr, ptr, ptr, i32, ptr, ptr, ptr, ptr, ptr, ptr, ptr, ptr, ptr, ptr, ptr, ptr, ptr, ptr, ptr, ptr, ptr, ptr, ptr, ptr, ptr, ptr, ptr, ptr, ptr }
%struct._GLFWlibraryX11 = type { ptr, i32, i64, float, float, i64, i64, i32, ptr, ptr, i32, ptr, ptr, [349 x [5 x i8]], [256 x i16], [349 x i16], double, double, ptr, [2 x i32], i64, i64, i64, i64, i64, i64, i64, i64, i64, i64, i64, i64, i64, i64, i64, i64, i64, i64, i64, i64, i64, i64, i64, i64, i64, i64, i64, i64, i64, i64, i64, i64, i64, i64, i64, i64, i64, i64, i64, i64, i64, i64, i64, i64, i64, i64, i64, i64, i64, i64, %struct.anon.18, %struct.anon.19, %struct.anon.20, %struct.anon.21, %struct.anon.22, %struct.anon.23, %struct.anon.24, %struct.anon.25, %struct.anon.26, %struct.anon.27, %struct.anon.28, %struct.anon.29, %struct.anon.30 }
%struct.anon.18 = type { ptr, i32, ptr, ptr, ptr, ptr, ptr, ptr, ptr, ptr, ptr, ptr, ptr, ptr, ptr, ptr, ptr, ptr, ptr, ptr, ptr, ptr, ptr, ptr, ptr, ptr, ptr, ptr, ptr, ptr, ptr, ptr, ptr, ptr, ptr, ptr, ptr, ptr, ptr, ptr, ptr, ptr, ptr, ptr, ptr, ptr, ptr, ptr, ptr, ptr, ptr, ptr, ptr, ptr, ptr, ptr, ptr, ptr, ptr, ptr, ptr, ptr, ptr, ptr, ptr, ptr, ptr, ptr, ptr, ptr, ptr, ptr, ptr, ptr, ptr, ptr, ptr, ptr, ptr, ptr, ptr, ptr, ptr, ptr, ptr, ptr, ptr, ptr }
%struct.anon.19 = type { ptr, ptr, ptr, ptr }
%struct.anon.20 = type { i32, ptr, i32, i32, i32, i32, i32, i32, ptr, ptr, ptr, ptr, ptr, ptr, ptr, ptr, ptr, ptr, ptr, ptr, ptr, ptr, ptr, ptr, ptr }
%struct.anon.21 = type { i32, i32, i32, i32, i32, i32, i32, i32, ptr, ptr, ptr, ptr, ptr, ptr, ptr, ptr, ptr }
%struct.anon.22 = type { i32, i32, i32, i32, i32 }
%struct.anon.23 = type { i32, i64, i64 }
%struct.anon.24 = type { ptr, ptr, ptr, ptr, ptr, ptr, ptr }
%struct.anon.25 = type { i32, ptr, i32, i32, ptr, ptr, ptr }
%struct.anon.26 = type { ptr, ptr }
%struct.anon.27 = type { i32, ptr, i32, i32, ptr, ptr, ptr, ptr }
%struct.anon.28 = type { i32, ptr, i32, i32, i32, i32, i32, ptr, ptr }
%struct.anon.29 = type { i32, ptr, i32, i32, i32, i32, ptr, ptr, ptr }
%struct.anon.30 = type { i32, ptr, i32, i32, i32, i32, ptr, ptr, ptr, ptr }
%struct._GLFWlibraryNull = type { i32, i32, ptr, ptr, [121 x i16], [349 x i8] }
%struct._GLFWlibraryGLX = type { i32, i32, i32, i32, ptr, ptr, ptr, ptr, ptr, ptr, ptr, ptr, ptr, ptr, ptr, ptr, ptr, ptr, ptr, ptr, ptr, ptr, ptr, ptr, i32, i32, i32, i32, i32, i32, i32, i32, i32, i32, i32, i32 }
%struct._GLFWlibraryLinux = type { i32, i32, %struct.re_pattern_buffer, i32, i32 }
%struct.re_pattern_buffer = type { ptr, i64, i64, i64, ptr, ptr, i64, i8 }
%struct._GLFWwindow = type { ptr, i32, i32, i32, i32, i32, i32, i32, ptr, i32, %struct.GLFWvidmode, ptr, ptr, ptr, i32, i32, i32, i32, i32, i32, i32, i32, i32, i32, [8 x i8], [349 x i8], double, double, i32, %struct._GLFWcontext, %struct.anon.33, %struct._GLFWwindowWayland, %struct._GLFWwindowX11, %struct._GLFWwindowNull }
%struct.GLFWvidmode = type { i32, i32, i32, i32, i32, i32 }
%struct._GLFWcontext = type { i32, i32, i32, i32, i32, i32, i32, i32, i32, i32, i32, ptr, ptr, ptr, ptr, ptr, ptr, ptr, ptr, ptr, %struct.anon.31, %struct.anon.32, %struct._GLFWcontextGLX }
%struct.anon.31 = type { ptr, ptr, ptr, ptr }
%struct.anon.32 = type { ptr, i32, i32, ptr }
%struct._GLFWcontextGLX = type { ptr, i64 }
%struct.anon.33 = type { ptr, ptr, ptr, ptr, ptr, ptr, ptr, ptr, ptr, ptr, ptr, ptr, ptr, ptr, ptr, ptr, ptr }
%struct._GLFWwindowWayland = type { i32, i32, i32, i32, i32, i32, i32, i32, i32, i32, i32, ptr, ptr, %struct.anon.34, %struct.anon.35, %struct.anon.36, %struct.anon.37, ptr, double, double, ptr, i32, ptr, i64, i64, ptr, i32, ptr, ptr, ptr, ptr, ptr, ptr, %struct.anon.38 }
%struct.anon.34 = type { ptr }
%struct.anon.35 = type { i32, i32, i32, i32, i32, i32 }
%struct.anon.36 = type { ptr, ptr, ptr, i32 }
%struct.anon.37 = type { ptr }
%struct.anon.38 = type { i32, ptr, %struct._GLFWfallbackEdgeWayland, %struct._GLFWfallbackEdgeWayland, %struct._GLFWfallbackEdgeWayland, %struct._GLFWfallbackEdgeWayland, ptr }
%struct._GLFWfallbackEdgeWayland = type { ptr, ptr, ptr }
%struct._GLFWwindowX11 = type { i64, i64, i64, ptr, i32, i32, i32, i32, i32, i32, i32, i32, i32, i32, i32, i32, [256 x i64] }
%struct._GLFWwindowNull = type { i32, i32, i32, i32, i32, i32, i32, i32, i32, i32, i32, float }
%struct.XSizeHints = type { i64, i32, i32, i32, i32, i32, i32, i32, i32, i32, i32, %struct.anon.40, %struct.anon.40, i32, i32, i32 }
%struct.anon.40 = type { i32, i32 }

@_glfw = external global %struct._GLFWlibrary, align 8

; Function Attrs: nounwind uwtable
define internal void @updateNormalHints(ptr noundef %0, i32 noundef %1, i32 noundef %2) #0 {
  %4 = alloca ptr, align 8
  %5 = alloca i32, align 4
  %6 = alloca i32, align 4
  %7 = alloca ptr, align 8
  %8 = alloca i64, align 8
  store ptr %0, ptr %4, align 8, !tbaa !133
  store i32 %1, ptr %5, align 4, !tbaa !194
  store i32 %2, ptr %6, align 4, !tbaa !194
  call void @llvm.lifetime.start.p0(i64 8, ptr %7) #8
  %9 = load ptr, ptr getelementptr inbounds nuw (%struct.anon.18, ptr getelementptr inbounds nuw (%struct._GLFWlibraryX11, ptr getelementptr inbounds nuw (%struct._GLFWlibrary, ptr @_glfw, i32 0, i32 22), i32 0, i32 70), i32 0, i32 3), align 8, !tbaa !240
  %10 = call ptr %9()
  store ptr %10, ptr %7, align 8, !tbaa !97
  call void @llvm.lifetime.start.p0(i64 8, ptr %8) #8
  %11 = load ptr, ptr getelementptr inbounds nuw (%struct.anon.18, ptr getelementptr inbounds nuw (%struct._GLFWlibraryX11, ptr getelementptr inbounds nuw (%struct._GLFWlibrary, ptr @_glfw, i32 0, i32 22), i32 0, i32 70), i32 0, i32 41), align 8, !tbaa !325
  %12 = load ptr, ptr getelementptr inbounds nuw (%struct._GLFWlibrary, ptr @_glfw, i32 0, i32 22), align 8, !tbaa !96
  %13 = load ptr, ptr %4, align 8, !tbaa !133
  %14 = getelementptr inbounds nuw %struct._GLFWwindow, ptr %13, i32 0, i32 32
  %15 = getelementptr inbounds nuw %struct._GLFWwindowX11, ptr %14, i32 0, i32 1
  %16 = load i64, ptr %15, align 8, !tbaa !139
  %17 = load ptr, ptr %7, align 8, !tbaa !97
  %18 = call i32 %11(ptr noundef %12, i64 noundef %16, ptr noundef %17, ptr noundef %8)
  %19 = load ptr, ptr %7, align 8, !tbaa !97
  %20 = getelementptr inbounds nuw %struct.XSizeHints, ptr %19, i32 0, i32 0
  %21 = load i64, ptr %20, align 8, !tbaa !242
  %22 = and i64 %21, -177
  store i64 %22, ptr %20, align 8, !tbaa !242
  %23 = load ptr, ptr %4, align 8, !tbaa !133
  %24 = getelementptr inbounds nuw %struct._GLFWwindow, ptr %23, i32 0, i32 11
  %25 = load ptr, ptr %24, align 8, !tbaa !196
  %26 = icmp ne ptr %25, null
  br i1 %26, label %132, label %27

27:                                               ; preds = %3
  %28 = load ptr, ptr %4, align 8, !tbaa !133
  %29 = getelementptr inbounds nuw %struct._GLFWwindow, ptr %28, i32 0, i32 1
  %30 = load i32, ptr %29, align 8, !tbaa !330
  %31 = icmp ne i32 %30, 0
  br i1 %31, label %32, label %116

32:                                               ; preds = %27
  %33 = load ptr, ptr %4, align 8, !tbaa !133
  %34 = getelementptr inbounds nuw %struct._GLFWwindow, ptr %33, i32 0, i32 14
  %35 = load i32, ptr %34, align 8, !tbaa !332
  %36 = icmp ne i32 %35, -1
  br i1 %36, label %37, label %57

37:                                               ; preds = %32
  %38 = load ptr, ptr %4, align 8, !tbaa !133
  %39 = getelementptr inbounds nuw %struct._GLFWwindow, ptr %38, i32 0, i32 15
  %40 = load i32, ptr %39, align 4, !tbaa !333
  %41 = icmp ne i32 %40, -1
  br i1 %41, label %42, label %57

42:                                               ; preds = %37
  %43 = load ptr, ptr %7, align 8, !tbaa !97
  %44 = getelementptr inbounds nuw %struct.XSizeHints, ptr %43, i32 0, i32 0
  %45 = load i64, ptr %44, align 8, !tbaa !242
  %46 = or i64 %45, 16
  store i64 %46, ptr %44, align 8, !tbaa !242
  %47 = load ptr, ptr %4, align 8, !tbaa !133
  %48 = getelementptr inbounds nuw %struct._GLFWwindow, ptr %47, i32 0, i32 14
  %49 = load i32, ptr %48, align 8, !tbaa !332
  %50 = load ptr, ptr %7, align 8, !tbaa !97
  %51 = getelementptr inbounds nuw %struct.XSizeHints, ptr %50, i32 0, i32 5
  store i32 %49, ptr %51, align 8, !tbaa !245
  %52 = load ptr, ptr %4, align 8, !tbaa !133
  %53 = getelementptr inbounds nuw %struct._GLFWwindow, ptr %52, i32 0, i32 15
  %54 = load i32, ptr %53, align 4, !tbaa !333
  %55 = load ptr, ptr %7, align 8, !tbaa !97
  %56 = getelementptr inbounds nuw %struct.XSizeHints, ptr %55, i32 0, i32 6
  store i32 %54, ptr %56, align 4, !tbaa !247
  br label %57

57:                                               ; preds = %42, %37, %32
  %58 = load ptr, ptr %4, align 8, !tbaa !133
  %59 = getelementptr inbounds nuw %struct._GLFWwindow, ptr %58, i32 0, i32 16
  %60 = load i32, ptr %59, align 8, !tbaa !334
  %61 = icmp ne i32 %60, -1
  br i1 %61, label %62, label %82

62:                                               ; preds = %57
  %63 = load ptr, ptr %4, align 8, !tbaa !133
  %64 = getelementptr inbounds nuw %struct._GLFWwindow, ptr %63, i32 0, i32 17
  %65 = load i32, ptr %64, align 4, !tbaa !335
  %66 = icmp ne i32 %65, -1
  br i1 %66, label %67, label %82

67:                                               ; preds = %62
  %68 = load ptr, ptr %7, align 8, !tbaa !97
  %69 = getelementptr inbounds nuw %struct.XSizeHints, ptr %68, i32 0, i32 0
  %70 = load i64, ptr %69, align 8, !tbaa !242
  %71 = or i64 %70, 32
  store i64 %71, ptr %69, align 8, !tbaa !242
  %72 = load ptr, ptr %4, align 8, !tbaa !133
  %73 = getelementptr inbounds nuw %struct._GLFWwindow, ptr %72, i32 0, i32 16
  %74 = load i32, ptr %73, align 8, !tbaa !334
  %75 = load ptr, ptr %7, align 8, !tbaa !97
  %76 = getelementptr inbounds nuw %struct.XSizeHints, ptr %75, i32 0, i32 7
  store i32 %74, ptr %76, align 8, !tbaa !244
  %77 = load ptr, ptr %4, align 8, !tbaa !133
  %78 = getelementptr inbounds nuw %struct._GLFWwindow, ptr %77, i32 0, i32 17
  %79 = load i32, ptr %78, align 4, !tbaa !335
  %80 = load ptr, ptr %7, align 8, !tbaa !97
  %81 = getelementptr inbounds nuw %struct.XSizeHints, ptr %80, i32 0, i32 8
  store i32 %79, ptr %81, align 4, !tbaa !246
  br label %82

82:                                               ; preds = %67, %62, %57
  %83 = load ptr, ptr %4, align 8, !tbaa !133
  %84 = getelementptr inbounds nuw %struct._GLFWwindow, ptr %83, i32 0, i32 18
  %85 = load i32, ptr %84, align 8, !tbaa !336
  %86 = icmp ne i32 %85, -1
  br i1 %86, label %87, label %115

87:                                               ; preds = %82
  %88 = load ptr, ptr %4, align 8, !tbaa !133
  %89 = getelementptr inbounds nuw %struct._GLFWwindow, ptr %88, i32 0, i32 19
  %90 = load i32, ptr %89, align 4, !tbaa !337
  %91 = icmp ne i32 %90, -1
  br i1 %91, label %92, label %115

92:                                               ; preds = %87
  %93 = load ptr, ptr %7, align 8, !tbaa !97
  %94 = getelementptr inbounds nuw %struct.XSizeHints, ptr %93, i32 0, i32 0
  %95 = load i64, ptr %94, align 8, !tbaa !242
  %96 = or i64 %95, 128
  store i64 %96, ptr %94, align 8, !tbaa !242
  %97 = load ptr, ptr %4, align 8, !tbaa !133
  %98 = getelementptr inbounds nuw %struct._GLFWwindow, ptr %97, i32 0, i32 18
  %99 = load i32, ptr %98, align 8, !tbaa !336
  %100 = load ptr, ptr %7, align 8, !tbaa !97
  %101 = getelementptr inbounds nuw %struct.XSizeHints, ptr %100, i32 0, i32 12
  %102 = getelementptr inbounds nuw %struct.anon.40, ptr %101, i32 0, i32 0
  store i32 %99, ptr %102, align 8, !tbaa !338
  %103 = load ptr, ptr %7, align 8, !tbaa !97
  %104 = getelementptr inbounds nuw %struct.XSizeHints, ptr %103, i32 0, i32 11
  %105 = getelementptr inbounds nuw %struct.anon.40, ptr %104, i32 0, i32 0
  store i32 %99, ptr %105, align 8, !tbaa !339
  %106 = load ptr, ptr %4, align 8, !tbaa !133
  %107 = getelementptr inbounds nuw %struct._GLFWwindow, ptr %106, i32 0, i32 19
  %108 = load i32, ptr %107, align 4, !tbaa !337
  %109 = load ptr, ptr %7, align 8, !tbaa !97
  %110 = getelementptr inbounds nuw %struct.XSizeHints, ptr %109, i32 0, i32 12
  %111 = getelementptr inbounds nuw %struct.anon.40, ptr %110, i32 0, i32 1
  store i32 %108, ptr %111, align 4, !tbaa !340
  %112 = load ptr, ptr %7, align 8, !tbaa !97
  %113 = getelementptr inbounds nuw %struct.XSizeHints, ptr %112, i32 0, i32 11
  %114 = getelementptr inbounds nuw %struct.anon.40, ptr %113, i32 0, i32 1
  store i32 %108, ptr %114, align 4, !tbaa !341
  br label %115

115:                                              ; preds = %92, %87, %82
  br label %131

116:                                              ; preds = %27
  %117 = load ptr, ptr %7, align 8, !tbaa !97
  %118 = getelementptr inbounds nuw %struct.XSizeHints, ptr %117, i32 0, i32 0
  %119 = load i64, ptr %118, align 8, !tbaa !242
  %120 = or i64 %119, 48
  store i64 %120, ptr %118, align 8, !tbaa !242
  %121 = load i32, ptr %5, align 4, !tbaa !194
  %122 = load ptr, ptr %7, align 8, !tbaa !97
  %123 = getelementptr inbounds nuw %struct.XSizeHints, ptr %122, i32 0, i32 7
  store i32 %121, ptr %123, align 8, !tbaa !244
  %124 = load ptr, ptr %7, align 8, !tbaa !97
  %125 = getelementptr inbounds nuw %struct.XSizeHints, ptr %124, i32 0, i32 5
  store i32 %121, ptr %125, align 8, !tbaa !245
  %126 = load i32, ptr %6, align 4, !tbaa !194
  %127 = load ptr, ptr %7, align 8, !tbaa !97
  %128 = getelementptr inbounds nuw %struct.XSizeHints, ptr %127, i32 0, i32 8
  store i32 %126, ptr %128, align 4, !tbaa !246
  %129 = load ptr, ptr %7, align 8, !tbaa !97
  %130 = getelementptr inbounds nuw %struct.XSizeHints, ptr %129, i32 0, i32 6
  store i32 %126, ptr %130, align 4, !tbaa !247
  br label %131

131:                                              ; preds = %116, %115
  br label %132

132:                                              ; preds = %131, %3
  %133 = load ptr, ptr getelementptr inbounds nuw (%struct.anon.18, ptr getelementptr inbounds nuw (%struct._GLFWlibraryX11, ptr getelementptr inbounds nuw (%struct._GLFWlibrary, ptr @_glfw, i32 0, i32 22), i32 0, i32 70), i32 0, i32 74), align 8, !tbaa !251
  %134 = load ptr, ptr getelementptr inbounds nuw (%struct._GLFWlibrary, ptr @_glfw, i32 0, i32 22), align 8, !tbaa !96
  %135 = load ptr, ptr %4, align 8, !tbaa !133
  %136 = getelementptr inbounds nuw %struct._GLFWwindow, ptr %135, i32 0, i32 32
  %137 = getelementptr inbounds nuw %struct._GLFWwindowX11, ptr %136, i32 0, i32 1
  %138 = load i64, ptr %137, align 8, !tbaa !139
  %139 = load ptr, ptr %7, align 8, !tbaa !97
  call void %133(ptr noundef %134, i64 noundef %138, ptr noundef %139)
  %140 = load ptr, ptr getelementptr inbounds nuw (%struct.anon.18, ptr getelementptr inbounds nuw (%struct._GLFWlibraryX11, ptr getelementptr inbounds nuw (%struct._GLFWlibrary, ptr @_glfw, i32 0, i32 22), i32 0, i32 70), i32 0, i32 28), align 8, !tbaa !239
  %141 = load ptr, ptr %7, align 8, !tbaa !97
  %142 = call i32 %140(ptr noundef %141)
  call void @llvm.lifetime.end.p0(i64 8, ptr %8) #8
  call void @llvm.lifetime.end.p0(i64 8, ptr %7) #8
  ret void
}