; Function Attrs: nounwind uwtable
define internal fastcc void @updateNormalHints(ptr noundef readonly captures(none) %0, i32 noundef %1, i32 noundef %2) unnamed_addr #0 {
  %4 = alloca i64, align 8
  %5 = load ptr, ptr getelementptr inbounds nuw (i8, ptr @_glfw, i64 141352), align 8, !tbaa !228
  %6 = tail call ptr %5() #17
  call void @llvm.lifetime.start.p0(i64 8, ptr nonnull %4) #17
  %7 = load ptr, ptr getelementptr inbounds nuw (i8, ptr @_glfw, i64 141656), align 8, !tbaa !331
  %8 = load ptr, ptr getelementptr inbounds nuw (i8, ptr @_glfw, i64 137840), align 8, !tbaa !93
  %9 = getelementptr inbounds nuw i8, ptr %0, i64 1248
  %10 = load i64, ptr %9, align 8, !tbaa !140
  %11 = call i32 %7(ptr noundef %8, i64 noundef %10, ptr noundef %6, ptr noundef nonnull %4) #17
  %12 = load i64, ptr %6, align 8, !tbaa !230
  %13 = and i64 %12, -177
  store i64 %13, ptr %6, align 8, !tbaa !230
  %14 = getelementptr inbounds nuw i8, ptr %0, i64 80
  %15 = load ptr, ptr %14, align 8, !tbaa !213
  %.not = icmp eq ptr %15, null
  br i1 %.not, label %16, label %55

16:                                               ; preds = %3
  %17 = getelementptr inbounds nuw i8, ptr %0, i64 8
  %18 = load i32, ptr %17, align 8, !tbaa !333
  %.not37 = icmp eq i32 %18, 0
  br i1 %.not37, label %49, label %19

19:                                               ; preds = %16
  %20 = getelementptr inbounds nuw i8, ptr %0, i64 104
  %21 = load i32, ptr %20, align 8, !tbaa !335
  %.not38 = icmp eq i32 %21, -1
  br i1 %.not38, label %29, label %22

22:                                               ; preds = %19
  %23 = getelementptr inbounds nuw i8, ptr %0, i64 108
  %24 = load i32, ptr %23, align 4, !tbaa !336
  %.not39 = icmp eq i32 %24, -1
  br i1 %.not39, label %29, label %25

25:                                               ; preds = %22
  %26 = or disjoint i64 %13, 16
  store i64 %26, ptr %6, align 8, !tbaa !230
  %27 = getelementptr inbounds nuw i8, ptr %6, i64 24
  store i32 %21, ptr %27, align 8, !tbaa !233
  %28 = getelementptr inbounds nuw i8, ptr %6, i64 28
  store i32 %24, ptr %28, align 4, !tbaa !235
  br label %29

29:                                               ; preds = %25, %22, %19
  %30 = phi i64 [ %26, %25 ], [ %13, %22 ], [ %13, %19 ]
  %31 = getelementptr inbounds nuw i8, ptr %0, i64 112
  %32 = load i32, ptr %31, align 8, !tbaa !337
  %.not40 = icmp eq i32 %32, -1
  br i1 %.not40, label %40, label %33

33:                                               ; preds = %29
  %34 = getelementptr inbounds nuw i8, ptr %0, i64 116
  %35 = load i32, ptr %34, align 4, !tbaa !338
  %.not41 = icmp eq i32 %35, -1
  br i1 %.not41, label %40, label %36

36:                                               ; preds = %33
  %37 = or i64 %30, 32
  store i64 %37, ptr %6, align 8, !tbaa !230
  %38 = getelementptr inbounds nuw i8, ptr %6, i64 32
  store i32 %32, ptr %38, align 8, !tbaa !232
  %39 = getelementptr inbounds nuw i8, ptr %6, i64 36
  store i32 %35, ptr %39, align 4, !tbaa !234
  br label %40

40:                                               ; preds = %36, %33, %29
  %41 = phi i64 [ %37, %36 ], [ %30, %33 ], [ %30, %29 ]
  %42 = getelementptr inbounds nuw i8, ptr %0, i64 120
  %43 = load i32, ptr %42, align 8, !tbaa !339
  %.not42 = icmp eq i32 %43, -1
  br i1 %.not42, label %55, label %44

44:                                               ; preds = %40
  %45 = getelementptr inbounds nuw i8, ptr %0, i64 124
  %46 = load i32, ptr %45, align 4, !tbaa !340
  %.not43 = icmp eq i32 %46, -1
  br i1 %.not43, label %55, label %47

47:                                               ; preds = %44
  %48 = or i64 %41, 128
  br label %.sink.split

49:                                               ; preds = %16
  %50 = or disjoint i64 %13, 48
  br label %.sink.split

.sink.split:                                      ; preds = %47, %49
  %.sink55 = phi i64 [ %50, %49 ], [ %48, %47 ]
  %.sink54 = phi i64 [ 32, %49 ], [ 56, %47 ]
  %.sink52 = phi i32 [ %1, %49 ], [ %43, %47 ]
  %.sink51 = phi i64 [ 24, %49 ], [ 48, %47 ]
  %.sink48 = phi i64 [ 36, %49 ], [ 60, %47 ]
  %.sink46 = phi i32 [ %2, %49 ], [ %46, %47 ]
  %.sink45 = phi i64 [ 28, %49 ], [ 52, %47 ]
  store i64 %.sink55, ptr %6, align 8, !tbaa !230
  %51 = getelementptr inbounds nuw i8, ptr %6, i64 %.sink54
  store i32 %.sink52, ptr %51, align 8, !tbaa !183
  %52 = getelementptr inbounds nuw i8, ptr %6, i64 %.sink51
  store i32 %.sink52, ptr %52, align 8, !tbaa !183
  %53 = getelementptr inbounds nuw i8, ptr %6, i64 %.sink48
  store i32 %.sink46, ptr %53, align 4, !tbaa !183
  %54 = getelementptr inbounds nuw i8, ptr %6, i64 %.sink45
  store i32 %.sink46, ptr %54, align 4, !tbaa !183
  br label %55

55:                                               ; preds = %.sink.split, %44, %40, %3
  %56 = load ptr, ptr getelementptr inbounds nuw (i8, ptr @_glfw, i64 141920), align 8, !tbaa !239
  %57 = load ptr, ptr getelementptr inbounds nuw (i8, ptr @_glfw, i64 137840), align 8, !tbaa !93
  %58 = load i64, ptr %9, align 8, !tbaa !140
  call void %56(ptr noundef %57, i64 noundef %58, ptr noundef nonnull %6) #17
  %59 = load ptr, ptr getelementptr inbounds nuw (i8, ptr @_glfw, i64 141552), align 8, !tbaa !130
  %60 = call i32 %59(ptr noundef nonnull %6) #17
  call void @llvm.lifetime.end.p0(i64 8, ptr nonnull %4) #17
  ret void
}